; Function Attrs: nounwind uwtable
define i32 @MRIStepGetNumInnerStepperFails(ptr noundef %0, ptr noundef writeonly captures(none) %1) local_unnamed_addr #0 {
  %3 = alloca ptr, align 8
  %4 = alloca ptr, align 8
  call void @llvm.lifetime.start.p0(i64 8, ptr nonnull %3) #5
  call void @llvm.lifetime.start.p0(i64 8, ptr nonnull %4) #5
  %5 = call i32 @mriStep_AccessARKODEStepMem(ptr noundef %0, ptr noundef nonnull @__func__.MRIStepGetNumInnerStepperFails, ptr noundef nonnull %3, ptr noundef nonnull %4) #5
  %.not = icmp eq i32 %5, 0
  br i1 %.not, label %6, label %10

6:                                                ; preds = %2
  %7 = load ptr, ptr %4, align 8, !tbaa !8
  %8 = getelementptr inbounds nuw i8, ptr %7, i64 448
  %9 = load i64, ptr %8, align 8, !tbaa !50
  store i64 %9, ptr %1, align 8, !tbaa !25
  br label %10

10:                                               ; preds = %2, %6
  call void @llvm.lifetime.end.p0(i64 8, ptr nonnull %4) #5
  call void @llvm.lifetime.end.p0(i64 8, ptr nonnull %3) #5
  ret i32 %5
}